; ModuleID = 'source-C-CXX/48/1352.cpp'
source_filename = "source-C-CXX/48/1352.cpp"
target datalayout = "e-m:e-p270:32:32-p271:32:32-p272:64:64-i64:64-f80:128-n8:16:32:64-S128"
target triple = "x86_64-pc-linux-gnu"

%"class.std::ios_base::Init" = type { i8 }
%"class.std::basic_istream" = type { i32 (...)**, i64, %"class.std::basic_ios" }
%"class.std::basic_ios" = type { %"class.std::ios_base", %"class.std::basic_ostream"*, i8, i8, %"class.std::basic_streambuf"*, %"class.std::ctype"*, %"class.std::num_put"*, %"class.std::num_get"* }
%"class.std::ios_base" = type { i32 (...)**, i64, i64, i32, i32, i32, %"struct.std::ios_base::_Callback_list"*, %"struct.std::ios_base::_Words", [8 x %"struct.std::ios_base::_Words"], i32, %"struct.std::ios_base::_Words"*, %"class.std::locale" }
%"struct.std::ios_base::_Callback_list" = type { %"struct.std::ios_base::_Callback_list"*, void (i32, %"class.std::ios_base"*, i32)*, i32, i32 }
%"struct.std::ios_base::_Words" = type { i8*, i64 }
%"class.std::locale" = type { %"class.std::locale::_Impl"* }
%"class.std::locale::_Impl" = type { i32, %"class.std::locale::facet"**, i64, %"class.std::locale::facet"**, i8** }
%"class.std::locale::facet" = type <{ i32 (...)**, i32, [4 x i8] }>
%"class.std::basic_ostream" = type { i32 (...)**, %"class.std::basic_ios" }
%"class.std::basic_streambuf" = type { i32 (...)**, i8*, i8*, i8*, i8*, i8*, i8*, %"class.std::locale" }
%"class.std::ctype" = type <{ %"class.std::locale::facet.base", [4 x i8], %struct.__locale_struct*, i8, [7 x i8], i32*, i32*, i16*, i8, [256 x i8], [256 x i8], i8, [6 x i8] }>
%"class.std::locale::facet.base" = type <{ i32 (...)**, i32 }>
%struct.__locale_struct = type { [13 x %struct.__locale_data*], i16*, i32*, i32*, [13 x i8*] }
%struct.__locale_data = type opaque
%"class.std::num_put" = type { %"class.std::locale::facet.base", [4 x i8] }
%"class.std::num_get" = type { %"class.std::locale::facet.base", [4 x i8] }

@_ZStL8__ioinit = internal global %"class.std::ios_base::Init" zeroinitializer, align 1
@__dso_handle = external hidden global i8
@_ZSt3cin = external global %"class.std::basic_istream", align 8
@_ZSt4cout = external global %"class.std::basic_ostream", align 8
@llvm.global_ctors = appending global [1 x { i32, void ()*, i8* }] [{ i32, void ()*, i8* } { i32 65535, void ()* @_GLOBAL__sub_I_1352.cpp, i8* null }]

declare void @_ZNSt8ios_base4InitC1Ev(%"class.std::ios_base::Init"* nonnull align 1 dereferenceable(1)) unnamed_addr #0

; Function Attrs: nounwind
declare void @_ZNSt8ios_base4InitD1Ev(%"class.std::ios_base::Init"* nonnull align 1 dereferenceable(1)) unnamed_addr #1

; Function Attrs: nofree nounwind
declare i32 @__cxa_atexit(void (i8*)*, i8*, i8*) local_unnamed_addr #2

; Function Attrs: mustprogress norecurse sspstrong uwtable
define dso_local i32 @main() local_unnamed_addr #3 {
  %1 = alloca i8, align 1
  %2 = alloca [600 x i8], align 16
  %3 = getelementptr inbounds [600 x i8], [600 x i8]* %2, i64 0, i64 0
  call void @llvm.lifetime.start.p0i8(i64 600, i8* nonnull %3) #8
  call void @_ZSt17__istream_extractRSiPcl(%"class.std::basic_istream"* nonnull align 8 dereferenceable(16) @_ZSt3cin, i8* nonnull %3, i64 600)
  %4 = call i64 @strlen(i8* noundef nonnull %3) #9
  %5 = trunc i64 %4 to i32
  %6 = icmp slt i32 %5, 2
  br i1 %6, label %107, label %7

7:                                                ; preds = %0
  %8 = add i64 %4, 4294967295
  %9 = add i64 %4, 1
  %10 = and i64 %9, 4294967295
  %11 = and i64 %8, 4294967295
  br label %12

12:                                               ; preds = %7, %95
  %13 = phi i64 [ 2, %7 ], [ %96, %95 ]
  %14 = trunc i64 %13 to i32
  br label %15

15:                                               ; preds = %12, %83
  %16 = phi i64 [ %13, %12 ], [ %86, %83 ]
  %17 = phi i64 [ 0, %12 ], [ %84, %83 ]
  %18 = phi i32 [ 0, %12 ], [ %85, %83 ]
  %19 = add nuw nsw i64 %17, %13
  %20 = trunc i64 %19 to i32
  %21 = icmp sgt i32 %20, %5
  br i1 %21, label %95, label %98

22:                                               ; preds = %29
  %23 = add nuw nsw i64 %40, %17
  %24 = trunc i64 %30 to i32
  %25 = sub i32 -2, %24
  %26 = add nsw i32 %25, %20
  %27 = trunc i64 %23 to i32
  %28 = icmp sgt i32 %26, %27
  br i1 %28, label %29, label %41, !llvm.loop !5

29:                                               ; preds = %98, %22
  %30 = phi i64 [ %40, %22 ], [ 0, %98 ]
  %31 = phi i32 [ %26, %22 ], [ %104, %98 ]
  %32 = phi i32 [ %27, %22 ], [ %105, %98 ]
  %33 = zext i32 %32 to i64
  %34 = getelementptr inbounds [600 x i8], [600 x i8]* %2, i64 0, i64 %33
  %35 = load i8, i8* %34, align 1, !tbaa !7
  %36 = sext i32 %31 to i64
  %37 = getelementptr inbounds [600 x i8], [600 x i8]* %2, i64 0, i64 %36
  %38 = load i8, i8* %37, align 1, !tbaa !7
  %39 = icmp eq i8 %35, %38
  %40 = add nuw i64 %30, 1
  br i1 %39, label %22, label %43

41:                                               ; preds = %22
  %42 = trunc i64 %23 to i32
  br label %43

43:                                               ; preds = %29, %41, %98
  %44 = phi i32 [ %105, %98 ], [ %42, %41 ], [ %32, %29 ]
  %45 = phi i32 [ %104, %98 ], [ %26, %41 ], [ %31, %29 ]
  %46 = sext i32 %45 to i64
  %47 = getelementptr inbounds [600 x i8], [600 x i8]* %2, i64 0, i64 %46
  %48 = load i8, i8* %47, align 1, !tbaa !7
  %49 = zext i32 %44 to i64
  %50 = getelementptr inbounds [600 x i8], [600 x i8]* %2, i64 0, i64 %49
  %51 = load i8, i8* %50, align 1, !tbaa !7
  %52 = icmp eq i8 %48, %51
  %53 = sub nsw i32 %45, %44
  %54 = icmp slt i32 %53, 3
  %55 = select i1 %52, i1 %54, i1 false
  br i1 %55, label %88, label %83

56:                                               ; preds = %88
  %57 = load i8*, i8** bitcast (%"class.std::basic_ostream"* @_ZSt4cout to i8**), align 8, !tbaa !10
  %58 = getelementptr i8, i8* %57, i64 -24
  %59 = bitcast i8* %58 to i64*
  %60 = load i64, i64* %59, align 8
  %61 = add nsw i64 %60, 240
  %62 = getelementptr inbounds i8, i8* bitcast (%"class.std::basic_ostream"* @_ZSt4cout to i8*), i64 %61
  %63 = bitcast i8* %62 to %"class.std::ctype"**
  %64 = load %"class.std::ctype"*, %"class.std::ctype"** %63, align 8, !tbaa !12
  %65 = icmp eq %"class.std::ctype"* %64, null
  br i1 %65, label %106, label %66

66:                                               ; preds = %56
  %67 = getelementptr inbounds %"class.std::ctype", %"class.std::ctype"* %64, i64 0, i32 8
  %68 = load i8, i8* %67, align 8, !tbaa !16
  %69 = icmp eq i8 %68, 0
  br i1 %69, label %73, label %70

70:                                               ; preds = %66
  %71 = getelementptr inbounds %"class.std::ctype", %"class.std::ctype"* %64, i64 0, i32 9, i64 10
  %72 = load i8, i8* %71, align 1, !tbaa !7
  br label %79

73:                                               ; preds = %66
  call void @_ZNKSt5ctypeIcE13_M_widen_initEv(%"class.std::ctype"* nonnull align 8 dereferenceable(570) %64)
  %74 = bitcast %"class.std::ctype"* %64 to i8 (%"class.std::ctype"*, i8)***
  %75 = load i8 (%"class.std::ctype"*, i8)**, i8 (%"class.std::ctype"*, i8)*** %74, align 8, !tbaa !10
  %76 = getelementptr inbounds i8 (%"class.std::ctype"*, i8)*, i8 (%"class.std::ctype"*, i8)** %75, i64 6
  %77 = load i8 (%"class.std::ctype"*, i8)*, i8 (%"class.std::ctype"*, i8)** %76, align 8
  %78 = call signext i8 %77(%"class.std::ctype"* nonnull align 8 dereferenceable(570) %64, i8 signext 10)
  br label %79

79:                                               ; preds = %73, %70
  %80 = phi i8 [ %72, %70 ], [ %78, %73 ]
  %81 = call nonnull align 8 dereferenceable(8) %"class.std::basic_ostream"* @_ZNSo3putEc(%"class.std::basic_ostream"* nonnull align 8 dereferenceable(8) @_ZSt4cout, i8 signext %80)
  %82 = call nonnull align 8 dereferenceable(8) %"class.std::basic_ostream"* @_ZNSo5flushEv(%"class.std::basic_ostream"* nonnull align 8 dereferenceable(8) %81)
  br label %83

83:                                               ; preds = %79, %43
  %84 = add nuw nsw i64 %17, 1
  %85 = add nuw nsw i32 %18, 1
  %86 = add nuw nsw i64 %16, 1
  %87 = icmp eq i64 %84, %11
  br i1 %87, label %95, label %15, !llvm.loop !18

88:                                               ; preds = %43, %88
  %89 = phi i64 [ %93, %88 ], [ %17, %43 ]
  %90 = getelementptr inbounds [600 x i8], [600 x i8]* %2, i64 0, i64 %89
  %91 = load i8, i8* %90, align 1, !tbaa !7
  call void @llvm.lifetime.start.p0i8(i64 1, i8* nonnull %1)
  store i8 %91, i8* %1, align 1, !tbaa !7
  %92 = call nonnull align 8 dereferenceable(8) %"class.std::basic_ostream"* @_ZSt16__ostream_insertIcSt11char_traitsIcEERSt13basic_ostreamIT_T0_ES6_PKS3_l(%"class.std::basic_ostream"* nonnull align 8 dereferenceable(8) @_ZSt4cout, i8* nonnull %1, i64 1)
  call void @llvm.lifetime.end.p0i8(i64 1, i8* nonnull %1)
  %93 = add nuw nsw i64 %89, 1
  %94 = icmp eq i64 %93, %16
  br i1 %94, label %56, label %88, !llvm.loop !19

95:                                               ; preds = %15, %83
  %96 = add nuw nsw i64 %13, 1
  %97 = icmp eq i64 %96, %10
  br i1 %97, label %107, label %12, !llvm.loop !20

98:                                               ; preds = %15
  %99 = add nuw nsw i32 %18, %14
  %100 = add nsw i32 %99, -1
  %101 = sext i32 %100 to i64
  %102 = icmp slt i64 %17, %101
  %103 = trunc i64 %19 to i32
  %104 = add i32 %103, -1
  %105 = trunc i64 %17 to i32
  br i1 %102, label %29, label %43

106:                                              ; preds = %56
  call void @_ZSt16__throw_bad_castv() #10
  unreachable

107:                                              ; preds = %95, %0
  call void @llvm.lifetime.end.p0i8(i64 600, i8* nonnull %3) #8
  ret i32 0
}

; Function Attrs: argmemonly mustprogress nofree nosync nounwind willreturn
declare void @llvm.lifetime.start.p0i8(i64 immarg, i8* nocapture) #4

; Function Attrs: argmemonly mustprogress nofree nounwind readonly willreturn
declare i64 @strlen(i8* nocapture) local_unnamed_addr #5

; Function Attrs: argmemonly mustprogress nofree nosync nounwind willreturn
declare void @llvm.lifetime.end.p0i8(i64 immarg, i8* nocapture) #4

declare void @_ZSt17__istream_extractRSiPcl(%"class.std::basic_istream"* nonnull align 8 dereferenceable(16), i8*, i64) local_unnamed_addr #0

declare nonnull align 8 dereferenceable(8) %"class.std::basic_ostream"* @_ZSt16__ostream_insertIcSt11char_traitsIcEERSt13basic_ostreamIT_T0_ES6_PKS3_l(%"class.std::basic_ostream"* nonnull align 8 dereferenceable(8), i8*, i64) local_unnamed_addr #0

declare nonnull align 8 dereferenceable(8) %"class.std::basic_ostream"* @_ZNSo3putEc(%"class.std::basic_ostream"* nonnull align 8 dereferenceable(8), i8 signext) local_unnamed_addr #0

declare nonnull align 8 dereferenceable(8) %"class.std::basic_ostream"* @_ZNSo5flushEv(%"class.std::basic_ostream"* nonnull align 8 dereferenceable(8)) local_unnamed_addr #0

; Function Attrs: noreturn
declare void @_ZSt16__throw_bad_castv() local_unnamed_addr #6

declare void @_ZNKSt5ctypeIcE13_M_widen_initEv(%"class.std::ctype"* nonnull align 8 dereferenceable(570)) local_unnamed_addr #0

; Function Attrs: sspstrong uwtable
define internal void @_GLOBAL__sub_I_1352.cpp() #7 section ".text.startup" {
  tail call void @_ZNSt8ios_base4InitC1Ev(%"class.std::ios_base::Init"* nonnull align 1 dereferenceable(1) @_ZStL8__ioinit)
  %1 = tail call i32 @__cxa_atexit(void (i8*)* bitcast (void (%"class.std::ios_base::Init"*)* @_ZNSt8ios_base4InitD1Ev to void (i8*)*), i8* getelementptr inbounds (%"class.std::ios_base::Init", %"class.std::ios_base::Init"* @_ZStL8__ioinit, i64 0, i32 0), i8* nonnull @__dso_handle) #8
  ret void
}


!llvm.module.flags = !{!0, !1, !2, !3}
!llvm.ident = !{!4}

!0 = !{i32 1, !"wchar_size", i32 4}
!1 = !{i32 7, !"PIC Level", i32 2}
!2 = !{i32 7, !"PIE Level", i32 2}
!3 = !{i32 7, !"uwtable", i32 1}
!4 = !{!"clang version 13.0.0"}
!5 = distinct !{!5, !6}
!6 = !{!"llvm.loop.mustprogress"}
!7 = !{!8, !8, i64 0}
!8 = !{!"omnipotent char", !9, i64 0}
!9 = !{!"Simple C++ TBAA"}
!10 = !{!11, !11, i64 0}
!11 = !{!"vtable pointer", !9, i64 0}
!12 = !{!13, !14, i64 240}
!13 = !{!"_ZTSSt9basic_iosIcSt11char_traitsIcEE", !14, i64 216, !8, i64 224, !15, i64 225, !14, i64 232, !14, i64 240, !14, i64 248, !14, i64 256}
!14 = !{!"any pointer", !8, i64 0}
!15 = !{!"bool", !8, i64 0}
!16 = !{!17, !8, i64 56}
!17 = !{!"_ZTSSt5ctypeIcE", !14, i64 16, !15, i64 24, !14, i64 32, !14, i64 40, !14, i64 48, !8, i64 56, !8, i64 57, !8, i64 313, !8, i64 569}
!18 = distinct !{!18, !6}
!19 = distinct !{!19, !6}
!20 = distinct !{!20, !6}
